target datalayout = "e-m:e-p270:32:32-p271:32:32-p272:64:64-i64:64-i128:128-f80:128-n8:16:32:64-S128"
target triple = "x86_64-pc-linux-gnu"

%struct.SDL_HIDAPI_Device = type { ptr, ptr, ptr, ptr, i16, i16, i16, ptr, %struct.SDL_GUID, i32, i32, i32, i32, i16, i16, i8, i32, i32, i32, ptr, ptr, ptr, ptr, %struct.SDL_AtomicInt, i32, ptr, i8, i8, i8, ptr, i32, ptr, ptr }
%struct.SDL_GUID = type { [16 x i8] }
%struct.SDL_AtomicInt = type { i32 }
%struct.SDL_DriverLuna_Context = type { [64 x i8] }
%struct.SDL_Joystick = type { i32, ptr, ptr, ptr, %struct.SDL_GUID, i16, i64, i8, i8, i32, ptr, i32, ptr, i32, ptr, i32, ptr, i32, ptr, i32, i32, ptr, i16, i16, i64, i64, i16, i16, i64, i64, i8, i8, i8, i64, i8, i32, i32, i32, i8, i32, ptr, i32, ptr, [3 x [3 x float]], i64, ptr, ptr, i32, i32, ptr }

; Function Attrs: nounwind uwtable
define internal zeroext i1 @HIDAPI_DriverLuna_OpenJoystick(ptr noundef %0, ptr noundef %1) #0 {
  %3 = alloca ptr, align 8
  %4 = alloca ptr, align 8
  %5 = alloca ptr, align 8
  store ptr %0, ptr %3, align 8
  store ptr %1, ptr %4, align 8
  call void @llvm.lifetime.start.p0(i64 8, ptr %5) #6
  %6 = load ptr, ptr %3, align 8
  %7 = getelementptr inbounds nuw %struct.SDL_HIDAPI_Device, ptr %6, i32 0, i32 20
  %8 = load ptr, ptr %7, align 8
  store ptr %8, ptr %5, align 8
  call void @SDL_AssertJoysticksLocked()
  %9 = load ptr, ptr %5, align 8
  %10 = getelementptr inbounds nuw %struct.SDL_DriverLuna_Context, ptr %9, i32 0, i32 0
  %11 = getelementptr inbounds [64 x i8], ptr %10, i64 0, i64 0
  call void @llvm.memset.p0.i64(ptr align 1 %11, i8 0, i64 64, i1 false)
  %12 = load ptr, ptr %4, align 8
  %13 = getelementptr inbounds nuw %struct.SDL_Joystick, ptr %12, i32 0, i32 15
  store i32 12, ptr %13, align 8
  %14 = load ptr, ptr %4, align 8
  %15 = getelementptr inbounds nuw %struct.SDL_Joystick, ptr %14, i32 0, i32 9
  store i32 6, ptr %15, align 4
  %16 = load ptr, ptr %4, align 8
  %17 = getelementptr inbounds nuw %struct.SDL_Joystick, ptr %16, i32 0, i32 13
  store i32 1, ptr %17, align 8
  call void @llvm.lifetime.end.p0(i64 8, ptr %5) #6
  ret i1 true
}