; Function Attrs: nounwind uwtable
define internal noundef zeroext i1 @HIDAPI_DriverLuna_OpenJoystick(ptr noundef readonly captures(none) %0, ptr noundef writeonly captures(none) initializes((68, 72), (96, 100), (112, 116)) %1) #0 {
  %3 = getelementptr inbounds nuw i8, ptr %0, i64 112
  %4 = load ptr, ptr %3, align 8
  tail call void @SDL_AssertJoysticksLocked() #9
  tail call void @llvm.memset.p0.i64(ptr noundef nonnull align 1 dereferenceable(64) %4, i8 0, i64 64, i1 false)
  %5 = getelementptr inbounds nuw i8, ptr %1, i64 112
  store i32 12, ptr %5, align 8
  %6 = getelementptr inbounds nuw i8, ptr %1, i64 68
  store i32 6, ptr %6, align 4
  %7 = getelementptr inbounds nuw i8, ptr %1, i64 96
  store i32 1, ptr %7, align 8
  ret i1 true
}